target datalayout = "e-m:e-p270:32:32-p271:32:32-p272:64:64-i64:64-i128:128-f80:128-n8:16:32:64-S128"
target triple = "x86_64-unknown-linux-gnu"

%struct.xt_target = type { %struct.list_head, [29 x i8], i8, ptr, ptr, ptr, ptr, ptr, i32, i32, i32, i16, i16 }
%struct.list_head = type { ptr, ptr }
%struct.module = type { i32, %struct.list_head, [56 x i8], %struct.module_kobject, ptr, ptr, ptr, ptr, ptr, ptr, i32, %struct.mutex, ptr, i32, i32, ptr, ptr, i8, i8, i32, ptr, ptr, [7 x %struct.module_memory], %struct.mod_arch_specific, i64, i32, %struct.list_head, ptr, ptr, %struct.mod_kallsyms, ptr, ptr, ptr, ptr, i32, ptr, i32, i32, ptr, i32, ptr, ptr, i32, i32, ptr, ptr, i32, ptr, i32, ptr, i32, ptr, i32, i32, ptr, %struct.list_head, %struct.list_head, ptr, %struct.atomic_t }
%struct.module_kobject = type { %struct.kobject, ptr, ptr, ptr, ptr }
%struct.kobject = type { ptr, %struct.list_head, ptr, ptr, ptr, ptr, %struct.kref, i8 }
%struct.kref = type { %struct.refcount_struct }
%struct.refcount_struct = type { %struct.atomic_t }
%struct.mutex = type { %struct.atomic64_t, %struct.raw_spinlock, %struct.optimistic_spin_queue, %struct.list_head }
%struct.atomic64_t = type { i64 }
%struct.raw_spinlock = type { %struct.qspinlock }
%struct.qspinlock = type { %union.anon }
%union.anon = type { %struct.atomic_t }
%struct.optimistic_spin_queue = type { %struct.atomic_t }
%struct.module_memory = type { ptr, i32, %struct.mod_tree_node }
%struct.mod_tree_node = type { ptr, %struct.latch_tree_node }
%struct.latch_tree_node = type { [2 x %struct.rb_node] }
%struct.rb_node = type { i64, ptr, ptr }
%struct.mod_arch_specific = type { i32, ptr, ptr }
%struct.mod_kallsyms = type { ptr, i32, ptr, ptr }
%struct.atomic_t = type { i32 }
%struct.nf_nat_range2 = type { i32, %union.nf_inet_addr, %union.nf_inet_addr, %union.nf_conntrack_man_proto, %union.nf_conntrack_man_proto, %union.nf_conntrack_man_proto }
%union.nf_inet_addr = type { [4 x i32] }
%union.nf_conntrack_man_proto = type { i16 }

@__UNIQUE_ID_license797 = internal constant [12 x i8] c"license=GPL\00", section ".modinfo", align 1
@__UNIQUE_ID_author798 = internal constant [52 x i8] c"author=Netfilter Core Team <coreteam@netfilter.org>\00", section ".modinfo", align 1
@__UNIQUE_ID_description799 = internal constant [44 x i8] c"description=Xtables: automatic-address SNAT\00", section ".modinfo", align 1
@__UNIQUE_ID___addressable_init_module800 = internal global ptr @init_module, section ".init.data", align 8
@__UNIQUE_ID___addressable_cleanup_module801 = internal global ptr @cleanup_module, section ".exit.data", align 8
@__UNIQUE_ID_alias802 = internal constant [22 x i8] c"alias=ip6t_MASQUERADE\00", section ".modinfo", align 1
@__UNIQUE_ID_alias803 = internal constant [21 x i8] c"alias=ipt_MASQUERADE\00", section ".modinfo", align 1
@masquerade_tg_reg = internal global [2 x %struct.xt_target] [%struct.xt_target { %struct.list_head zeroinitializer, [29 x i8] c"MASQUERADE\00\00\00\00\00\00\00\00\00\00\00\00\00\00\00\00\00\00\00", i8 0, ptr @masquerade_tg6, ptr @masquerade_tg6_checkentry, ptr @masquerade_tg_destroy, ptr @__this_module, ptr @.str, i32 40, i32 0, i32 16, i16 0, i16 10 }, %struct.xt_target { %struct.list_head zeroinitializer, [29 x i8] c"MASQUERADE\00\00\00\00\00\00\00\00\00\00\00\00\00\00\00\00\00\00\00", i8 0, ptr @masquerade_tg, ptr @masquerade_tg_check, ptr @masquerade_tg_destroy, ptr @__this_module, ptr @.str, i32 20, i32 0, i32 16, i16 0, i16 2 }], section ".data..read_mostly", align 16
@__this_module = external dso_local global %struct.module, align 64
@.str = private unnamed_addr constant [4 x i8] c"nat\00", align 1
@llvm.compiler.used = appending global [7 x ptr] [ptr @__UNIQUE_ID___addressable_cleanup_module801, ptr @__UNIQUE_ID___addressable_init_module800, ptr @__UNIQUE_ID_alias802, ptr @__UNIQUE_ID_alias803, ptr @__UNIQUE_ID_author798, ptr @__UNIQUE_ID_description799, ptr @__UNIQUE_ID_license797], section "llvm.metadata"

; Function Attrs: cold fn_ret_thunk_extern nounwind null_pointer_is_valid optsize
define dso_local i32 @init_module() #0 section ".init.text" align 16 {
  %1 = tail call i32 @xt_register_targets(ptr noundef nonnull @masquerade_tg_reg, i32 noundef 2) #5
  %2 = icmp eq i32 %1, 0
  br i1 %2, label %3, label %7

3:                                                ; preds = %0
  %4 = tail call i32 @nf_nat_masquerade_inet_register_notifiers() #5
  %5 = icmp eq i32 %4, 0
  br i1 %5, label %7, label %6

6:                                                ; preds = %3
  tail call void @xt_unregister_targets(ptr noundef nonnull @masquerade_tg_reg, i32 noundef 2) #5
  br label %7

7:                                                ; preds = %6, %3, %0
  %8 = phi i32 [ %4, %6 ], [ %1, %0 ], [ 0, %3 ]
  ret i32 %8
}

; Function Attrs: cold fn_ret_thunk_extern nounwind null_pointer_is_valid optsize
define dso_local void @cleanup_module() #0 section ".exit.text" align 16 {
  tail call void @xt_unregister_targets(ptr noundef nonnull @masquerade_tg_reg, i32 noundef 2) #5
  tail call void @nf_nat_masquerade_inet_unregister_notifiers() #5
  ret void
}

; Function Attrs: nocallback nofree nosync nounwind willreturn memory(argmem: readwrite)
declare void @llvm.lifetime.start.p0(i64 immarg, ptr nocapture) #1

; Function Attrs: null_pointer_is_valid
declare dso_local i32 @xt_register_targets(ptr noundef, i32 noundef) local_unnamed_addr #2

; Function Attrs: null_pointer_is_valid
declare dso_local i32 @nf_nat_masquerade_inet_register_notifiers() local_unnamed_addr #2

; Function Attrs: null_pointer_is_valid
declare dso_local void @xt_unregister_targets(ptr noundef, i32 noundef) local_unnamed_addr #2

; Function Attrs: nocallback nofree nosync nounwind willreturn memory(argmem: readwrite)
declare void @llvm.lifetime.end.p0(i64 immarg, ptr nocapture) #1

; Function Attrs: fn_ret_thunk_extern nounwind null_pointer_is_valid
define internal i32 @masquerade_tg6(ptr noundef %0, ptr nocapture noundef readonly %1) #3 align 16 {
  %3 = getelementptr inbounds i8, ptr %1, i64 8
  %4 = load ptr, ptr %3, align 8
  %5 = getelementptr inbounds i8, ptr %1, i64 16
  %6 = load ptr, ptr %5, align 8
  %7 = getelementptr inbounds i8, ptr %6, i64 16
  %8 = load ptr, ptr %7, align 8
  %9 = tail call i32 @nf_nat_masquerade_ipv6(ptr noundef %0, ptr noundef %4, ptr noundef %8) #5
  ret i32 %9
}

; Function Attrs: fn_ret_thunk_extern nounwind null_pointer_is_valid
define internal i32 @masquerade_tg6_checkentry(ptr nocapture noundef readonly %0) #3 align 16 {
  %2 = getelementptr inbounds i8, ptr %0, i64 32
  %3 = load ptr, ptr %2, align 8
  %4 = load i32, ptr %3, align 4
  %5 = and i32 %4, 1
  %6 = icmp eq i32 %5, 0
  br i1 %6, label %7, label %12

7:                                                ; preds = %1
  %8 = load ptr, ptr %0, align 8
  %9 = getelementptr inbounds i8, ptr %0, i64 44
  %10 = load i8, ptr %9, align 4
  %11 = tail call i32 @nf_ct_netns_get(ptr noundef %8, i8 noundef zeroext %10) #5
  br label %12

12:                                               ; preds = %7, %1
  %13 = phi i32 [ %11, %7 ], [ -22, %1 ]
  ret i32 %13
}

; Function Attrs: fn_ret_thunk_extern nounwind null_pointer_is_valid
define internal void @masquerade_tg_destroy(ptr nocapture noundef readonly %0) #3 align 16 {
  %2 = load ptr, ptr %0, align 8
  %3 = getelementptr inbounds i8, ptr %0, i64 24
  %4 = load i8, ptr %3, align 8
  tail call void @nf_ct_netns_put(ptr noundef %2, i8 noundef zeroext %4) #5
  ret void
}

; Function Attrs: fn_ret_thunk_extern nounwind null_pointer_is_valid
define internal i32 @masquerade_tg(ptr noundef %0, ptr nocapture noundef readonly %1) #3 align 16 {
  %3 = alloca %struct.nf_nat_range2, align 4
  call void @llvm.lifetime.start.p0(i64 44, ptr nonnull %3) #5
  call void @llvm.memset.p0.i64(ptr noundef nonnull align 4 dereferenceable(44) %3, i8 0, i64 44, i1 false), !annotation !5
  %4 = getelementptr inbounds i8, ptr %1, i64 8
  %5 = load ptr, ptr %4, align 8
  %6 = getelementptr inbounds i8, ptr %5, i64 4
  %7 = load i32, ptr %6, align 4
  store i32 %7, ptr %3, align 4
  %8 = getelementptr inbounds i8, ptr %3, i64 36
  %9 = getelementptr inbounds i8, ptr %5, i64 16
  %10 = load i16, ptr %9, align 4
  store i16 %10, ptr %8, align 4
  %11 = getelementptr inbounds i8, ptr %3, i64 38
  %12 = getelementptr inbounds i8, ptr %5, i64 18
  %13 = load i16, ptr %12, align 2
  store i16 %13, ptr %11, align 2
  %14 = getelementptr inbounds i8, ptr %1, i64 16
  %15 = load ptr, ptr %14, align 8
  %16 = load i8, ptr %15, align 8
  %17 = zext i8 %16 to i32
  %18 = getelementptr inbounds i8, ptr %15, i64 16
  %19 = load ptr, ptr %18, align 8
  %20 = call i32 @nf_nat_masquerade_ipv4(ptr noundef %0, i32 noundef %17, ptr noundef nonnull %3, ptr noundef %19) #5
  call void @llvm.lifetime.end.p0(i64 44, ptr nonnull %3) #5
  ret i32 %20
}

; Function Attrs: fn_ret_thunk_extern nounwind null_pointer_is_valid
define internal i32 @masquerade_tg_check(ptr nocapture noundef readonly %0) #3 align 16 {
  %2 = getelementptr inbounds i8, ptr %0, i64 32
  %3 = load ptr, ptr %2, align 8
  %4 = getelementptr inbounds i8, ptr %3, i64 4
  %5 = load i32, ptr %4, align 4
  %6 = and i32 %5, 1
  %7 = icmp eq i32 %6, 0
  br i1 %7, label %8, label %16

8:                                                ; preds = %1
  %9 = load i32, ptr %3, align 4
  %10 = icmp eq i32 %9, 1
  br i1 %10, label %11, label %16

11:                                               ; preds = %8
  %12 = load ptr, ptr %0, align 8
  %13 = getelementptr inbounds i8, ptr %0, i64 44
  %14 = load i8, ptr %13, align 4
  %15 = tail call i32 @nf_ct_netns_get(ptr noundef %12, i8 noundef zeroext %14) #5
  br label %16

16:                                               ; preds = %11, %8, %1
  %17 = phi i32 [ %15, %11 ], [ -22, %1 ], [ -22, %8 ]
  ret i32 %17
}

; Function Attrs: null_pointer_is_valid
declare dso_local i32 @nf_nat_masquerade_ipv6(ptr noundef, ptr noundef, ptr noundef) local_unnamed_addr #2

; Function Attrs: null_pointer_is_valid
declare dso_local i32 @nf_ct_netns_get(ptr noundef, i8 noundef zeroext) local_unnamed_addr #2

; Function Attrs: null_pointer_is_valid
declare dso_local void @nf_ct_netns_put(ptr noundef, i8 noundef zeroext) local_unnamed_addr #2

; Function Attrs: nocallback nofree nounwind willreturn memory(argmem: write)
declare void @llvm.memset.p0.i64(ptr nocapture writeonly, i8, i64, i1 immarg) #4

; Function Attrs: null_pointer_is_valid
declare dso_local i32 @nf_nat_masquerade_ipv4(ptr noundef, i32 noundef, ptr noundef, ptr noundef) local_unnamed_addr #2

; Function Attrs: null_pointer_is_valid
declare dso_local void @nf_nat_masquerade_inet_unregister_notifiers() local_unnamed_addr #2


!llvm.module.flags = !{!0, !1, !2, !3, !4}

!0 = !{i32 1, !"wchar_size", i32 2}
!1 = !{i32 8, !"cf-protection-branch", i32 1}
!2 = !{i32 4, !"function_return_thunk_extern", i32 1}
!3 = !{i32 4, !"indirect_branch_cs_prefix", i32 1}
!4 = !{i32 4, !"SkipRaxSetup", i32 1}
!5 = !{!"auto-init"}
